target datalayout = "e-m:e-p270:32:32-p271:32:32-p272:64:64-i64:64-i128:128-f80:128-n8:16:32:64-S128"
target triple = "x86_64-pc-linux-gnu"

%struct.rb_data_type_struct = type { ptr, %struct.anon.12, ptr, ptr, i64 }
%struct.anon.12 = type { ptr, ptr, ptr, ptr, [1 x ptr] }
%union.pthread_mutex_t = type { %struct.__pthread_mutex_s }
%struct.__pthread_mutex_s = type { i32, i32, i32, i32, i32, i16, i16, %struct.__pthread_internal_list }
%struct.__pthread_internal_list = type { ptr, ptr }
%struct.rb_ractor_basket = type { %union.anon.13, i64, %union.anon.14 }
%union.anon.13 = type { i32 }
%union.anon.14 = type { %struct.anon.15 }
%struct.anon.15 = type { i64, i8 }
%struct.ccan_list_head = type { %struct.ccan_list_node }
%struct.ccan_list_node = type { ptr, ptr }
%struct.rb_thread_struct = type { %struct.ccan_list_node, i64, ptr, ptr, ptr, ptr, %struct.rb_thread_sched_item, i8, i32, i64, ptr, i64, i64, i8, i8, i32, ptr, i64, i64, i64, i64, %union.pthread_mutex_t, %struct.rb_unblock_callback, i64, ptr, %struct.ccan_list_head, ptr, %union.anon, i32, i64, ptr, i64, i32, i64, ptr, %struct.rb_ext_config }
%struct.rb_thread_sched_item = type { %struct.anon.8, %struct.rb_thread_sched_waiting, i8, i8, ptr, ptr }
%struct.anon.8 = type { %struct.ccan_list_node, %struct.ccan_list_node, %struct.ccan_list_node, %struct.ccan_list_node, %struct.ccan_list_node }
%struct.rb_thread_sched_waiting = type { i32, %struct.anon.9, %struct.ccan_list_node }
%struct.anon.9 = type { i64, i32, i32 }
%struct.rb_unblock_callback = type { ptr, ptr }
%union.anon = type { %struct.anon.10 }
%struct.anon.10 = type { i64, i64, i32 }
%struct.rb_ext_config = type { i8 }
%struct.rb_execution_context_struct = type { ptr, i64, ptr, ptr, i32, i32, ptr, ptr, ptr, i64, i64, i64, ptr, i64, ptr, i64, i64, i8, i8, i64, %struct.anon.7 }
%struct.anon.7 = type { ptr, ptr, i64, [1 x %struct.__jmp_buf_tag] }
%struct.__jmp_buf_tag = type { [8 x i64], i32, %struct.__sigset_t }
%struct.__sigset_t = type { [16 x i64] }
%struct.rb_ractor_selector_take_config = type { i8, i8 }
%struct.RData = type { %struct.RBasic, ptr, ptr, ptr }
%struct.RBasic = type { i64, i64 }
%struct.rb_ractor_selector = type { ptr, %struct.rb_ractor_basket, ptr }

@ractor_data_type = internal constant %struct.rb_data_type_struct { ptr @.str.61, %struct.anon.12 { ptr @ractor_mark, ptr @ractor_free, ptr @ractor_memsize, ptr null, [1 x ptr] zeroinitializer }, ptr null, ptr null, i64 1 }, align 8
@ruby_single_main_ractor = external global ptr, align 8
@rb_eArgError = external global i64, align 8
@ruby_current_ec = external thread_local global ptr, align 8
@.str.81 = private unnamed_addr constant [20 x i8] c"Not a ractor object\00", align 1
@.str.82 = private unnamed_addr constant [14 x i8] c"already added\00", align 1

; Function Attrs: inlinehint nounwind sspstrong uwtable
define internal ptr @rb_ec_thread_ptr(ptr noundef %0) #4 {
  %2 = alloca ptr, align 8
  store ptr %0, ptr %2, align 8, !tbaa !88
  %3 = load ptr, ptr %2, align 8, !tbaa !88
  %4 = getelementptr inbounds nuw %struct.rb_execution_context_struct, ptr %3, i32 0, i32 7
  %5 = load ptr, ptr %4, align 8, !tbaa !131
  ret ptr %5
}

; Function Attrs: inlinehint nounwind sspstrong uwtable
define internal ptr @rb_ec_ractor_ptr(ptr noundef %0) #4 {
  %2 = alloca ptr, align 8
  %3 = alloca ptr, align 8
  %4 = alloca ptr, align 8
  %5 = alloca i32, align 4
  store ptr %0, ptr %3, align 8, !tbaa !88
  call void @llvm.lifetime.start.p0(i64 8, ptr %4) #16
  %6 = load ptr, ptr %3, align 8, !tbaa !88
  %7 = call ptr @rb_ec_thread_ptr(ptr noundef %6)
  store ptr %7, ptr %4, align 8, !tbaa !46
  %8 = load ptr, ptr %4, align 8, !tbaa !46
  %9 = icmp ne ptr %8, null
  br i1 %9, label %10, label %14

10:                                               ; preds = %1
  %11 = load ptr, ptr %4, align 8, !tbaa !46
  %12 = getelementptr inbounds nuw %struct.rb_thread_struct, ptr %11, i32 0, i32 2
  %13 = load ptr, ptr %12, align 8, !tbaa !63
  store ptr %13, ptr %2, align 8
  store i32 1, ptr %5, align 4
  br label %15

14:                                               ; preds = %1
  store ptr null, ptr %2, align 8
  store i32 1, ptr %5, align 4
  br label %15

15:                                               ; preds = %14, %10
  call void @llvm.lifetime.end.p0(i64 8, ptr %4) #16
  %16 = load ptr, ptr %2, align 8
  ret ptr %16
}

; Function Attrs: inlinehint nounwind sspstrong uwtable
define internal ptr @rb_current_execution_context(i1 noundef zeroext %0) #4 {
  %2 = alloca i8, align 1
  %3 = alloca ptr, align 8
  %4 = zext i1 %0 to i8
  store i8 %4, ptr %2, align 1, !tbaa !89
  call void @llvm.lifetime.start.p0(i64 8, ptr %3) #16
  %5 = call align 8 ptr @llvm.threadlocal.address.p0(ptr align 8 @ruby_current_ec)
  %6 = load ptr, ptr %5, align 8, !tbaa !88
  store ptr %6, ptr %3, align 8, !tbaa !88
  %7 = load ptr, ptr %3, align 8, !tbaa !88
  call void @llvm.lifetime.end.p0(i64 8, ptr %3) #16
  ret ptr %7
}

; Function Attrs: inlinehint nounwind sspstrong uwtable
define internal ptr @rb_current_ractor_raw(i1 noundef zeroext %0) #4 {
  %2 = alloca ptr, align 8
  %3 = alloca i8, align 1
  %4 = alloca ptr, align 8
  %5 = zext i1 %0 to i8
  store i8 %5, ptr %3, align 1, !tbaa !89
  %6 = load ptr, ptr @ruby_single_main_ractor, align 8, !tbaa !7
  %7 = icmp ne ptr %6, null
  br i1 %7, label %8, label %10

8:                                                ; preds = %1
  %9 = load ptr, ptr @ruby_single_main_ractor, align 8, !tbaa !7
  store ptr %9, ptr %2, align 8
  br label %25

10:                                               ; preds = %1
  call void @llvm.lifetime.start.p0(i64 8, ptr %4) #16
  %11 = load i8, ptr %3, align 1, !tbaa !89, !range !91, !noundef !92
  %12 = trunc i8 %11 to i1
  %13 = call ptr @rb_current_execution_context(i1 noundef zeroext %12)
  store ptr %13, ptr %4, align 8, !tbaa !88
  %14 = load i8, ptr %3, align 1, !tbaa !89, !range !91, !noundef !92
  %15 = trunc i8 %14 to i1
  br i1 %15, label %19, label %16

16:                                               ; preds = %10
  %17 = load ptr, ptr %4, align 8, !tbaa !88
  %18 = icmp ne ptr %17, null
  br i1 %18, label %19, label %22

19:                                               ; preds = %16, %10
  %20 = load ptr, ptr %4, align 8, !tbaa !88
  %21 = call ptr @rb_ec_ractor_ptr(ptr noundef %20)
  br label %23

22:                                               ; preds = %16
  br label %23

23:                                               ; preds = %22, %19
  %24 = phi ptr [ %21, %19 ], [ null, %22 ]
  store ptr %24, ptr %2, align 8
  call void @llvm.lifetime.end.p0(i64 8, ptr %4) #16
  br label %25

25:                                               ; preds = %23, %8
  %26 = load ptr, ptr %2, align 8
  ret ptr %26
}

; Function Attrs: inlinehint nounwind sspstrong uwtable
define internal ptr @rb_current_ractor() #4 {
  %1 = call ptr @rb_current_ractor_raw(i1 noundef zeroext true)
  ret ptr %1
}

; Function Attrs: nounwind sspstrong uwtable
define internal ptr @RACTOR_SELECTOR_PTR(i64 noundef %0) #0 {
  %2 = alloca i64, align 8
  store i64 %0, ptr %2, align 8, !tbaa !16
  %3 = load i64, ptr %2, align 8, !tbaa !16
  %4 = inttoptr i64 %3 to ptr
  %5 = getelementptr inbounds nuw %struct.RData, ptr %4, i32 0, i32 3
  %6 = load ptr, ptr %5, align 8, !tbaa !117
  ret ptr %6
}

; Function Attrs: inlinehint nounwind sspstrong uwtable
define internal ptr @RACTOR_PTR(i64 noundef %0) #4 {
  %2 = alloca i64, align 8
  %3 = alloca ptr, align 8
  store i64 %0, ptr %2, align 8, !tbaa !16
  call void @llvm.lifetime.start.p0(i64 8, ptr %3) #16
  %4 = load i64, ptr %2, align 8, !tbaa !16
  %5 = inttoptr i64 %4 to ptr
  %6 = getelementptr inbounds nuw %struct.RData, ptr %5, i32 0, i32 3
  %7 = load ptr, ptr %6, align 8, !tbaa !117
  store ptr %7, ptr %3, align 8, !tbaa !7
  %8 = load ptr, ptr %3, align 8, !tbaa !7
  call void @llvm.lifetime.end.p0(i64 8, ptr %3) #16
  ret ptr %8
}

; Function Attrs: nounwind sspstrong uwtable
define hidden zeroext i1 @rb_ractor_p(i64 noundef %0) #0 {
  %2 = alloca i1, align 1
  %3 = alloca i64, align 8
  store i64 %0, ptr %3, align 8, !tbaa !16
  %4 = load i64, ptr %3, align 8, !tbaa !16
  %5 = call i32 @rb_typeddata_is_kind_of(i64 noundef %4, ptr noundef @ractor_data_type)
  %6 = icmp ne i32 %5, 0
  br i1 %6, label %7, label %8

7:                                                ; preds = %1
  store i1 true, ptr %2, align 1
  br label %9

8:                                                ; preds = %1
  store i1 false, ptr %2, align 1
  br label %9

9:                                                ; preds = %8, %7
  %10 = load i1, ptr %2, align 1
  ret i1 %10
}

; Function Attrs: nounwind sspstrong uwtable
define internal i64 @ractor_selector_add(i64 noundef %0, i64 noundef %1) #0 {
  %3 = alloca i64, align 8
  %4 = alloca i64, align 8
  %5 = alloca ptr, align 8
  %6 = alloca ptr, align 8
  %7 = alloca ptr, align 8
  store i64 %0, ptr %3, align 8, !tbaa !16
  store i64 %1, ptr %4, align 8, !tbaa !16
  %8 = load i64, ptr %4, align 8, !tbaa !16
  %9 = call zeroext i1 @rb_ractor_p(i64 noundef %8)
  br i1 %9, label %12, label %10

10:                                               ; preds = %2
  %11 = load i64, ptr @rb_eArgError, align 8, !tbaa !16
  call void (i64, ptr, ...) @rb_raise(i64 noundef %11, ptr noundef @.str.81) #30
  unreachable

12:                                               ; preds = %2
  call void @llvm.lifetime.start.p0(i64 8, ptr %5) #16
  %13 = load i64, ptr %4, align 8, !tbaa !16
  %14 = call ptr @RACTOR_PTR(i64 noundef %13)
  store ptr %14, ptr %5, align 8, !tbaa !7
  call void @llvm.lifetime.start.p0(i64 8, ptr %6) #16
  %15 = load i64, ptr %3, align 8, !tbaa !16
  %16 = call ptr @RACTOR_SELECTOR_PTR(i64 noundef %15)
  store ptr %16, ptr %6, align 8, !tbaa !134
  %17 = load ptr, ptr %6, align 8, !tbaa !134
  %18 = getelementptr inbounds nuw %struct.rb_ractor_selector, ptr %17, i32 0, i32 2
  %19 = load ptr, ptr %18, align 8, !tbaa !136
  %20 = load ptr, ptr %5, align 8, !tbaa !7
  %21 = ptrtoint ptr %20 to i64
  %22 = call i32 @rb_st_lookup(ptr noundef %19, i64 noundef %21, ptr noundef null)
  %23 = icmp ne i32 %22, 0
  br i1 %23, label %24, label %26

24:                                               ; preds = %12
  %25 = load i64, ptr @rb_eArgError, align 8, !tbaa !16
  call void (i64, ptr, ...) @rb_raise(i64 noundef %25, ptr noundef @.str.82) #30
  unreachable

26:                                               ; preds = %12
  call void @llvm.lifetime.start.p0(i64 8, ptr %7) #16
  %27 = call noalias ptr @malloc(i64 noundef 2) #33
  store ptr %27, ptr %7, align 8, !tbaa !138
  %28 = load ptr, ptr %7, align 8, !tbaa !138
  %29 = getelementptr inbounds nuw %struct.rb_ractor_selector_take_config, ptr %28, i32 0, i32 0
  store i8 0, ptr %29, align 1, !tbaa !106
  %30 = load ptr, ptr %7, align 8, !tbaa !138
  %31 = getelementptr inbounds nuw %struct.rb_ractor_selector_take_config, ptr %30, i32 0, i32 1
  store i8 0, ptr %31, align 1, !tbaa !140
  %32 = call ptr @rb_current_ractor()
  %33 = load ptr, ptr %5, align 8, !tbaa !7
  %34 = load ptr, ptr %6, align 8, !tbaa !134
  %35 = getelementptr inbounds nuw %struct.rb_ractor_selector, ptr %34, i32 0, i32 1
  %36 = load ptr, ptr %7, align 8, !tbaa !138
  %37 = call zeroext i1 @ractor_register_take(ptr noundef %32, ptr noundef %33, ptr noundef %35, i1 noundef zeroext false, ptr noundef %36, i1 noundef zeroext true)
  br i1 %37, label %38, label %47

38:                                               ; preds = %26
  %39 = load ptr, ptr %6, align 8, !tbaa !134
  %40 = getelementptr inbounds nuw %struct.rb_ractor_selector, ptr %39, i32 0, i32 2
  %41 = load ptr, ptr %40, align 8, !tbaa !136
  %42 = load ptr, ptr %5, align 8, !tbaa !7
  %43 = ptrtoint ptr %42 to i64
  %44 = load ptr, ptr %7, align 8, !tbaa !138
  %45 = ptrtoint ptr %44 to i64
  %46 = call i32 @rb_st_insert(ptr noundef %41, i64 noundef %43, i64 noundef %45)
  br label %47

47:                                               ; preds = %38, %26
  %48 = load i64, ptr %4, align 8, !tbaa !16
  call void @llvm.lifetime.end.p0(i64 8, ptr %7) #16
  call void @llvm.lifetime.end.p0(i64 8, ptr %6) #16
  call void @llvm.lifetime.end.p0(i64 8, ptr %5) #16
  ret i64 %48
}