; Function Attrs: nounwind sspstrong uwtable
define internal noundef i64 @ractor_selector_add(i64 noundef %0, i64 noundef returned %1) #0 {
  %3 = tail call i32 @rb_typeddata_is_kind_of(i64 noundef %1, ptr noundef nonnull @ractor_data_type) #19
  %.not.i.not = icmp eq i32 %3, 0
  br i1 %.not.i.not, label %4, label %6

4:                                                ; preds = %2
  %5 = load i64, ptr @rb_eArgError, align 8, !tbaa !80
  tail call void (i64, ptr, ...) @rb_raise(i64 noundef %5, ptr noundef nonnull @.str.81) #27
  unreachable

6:                                                ; preds = %2
  %7 = inttoptr i64 %1 to ptr
  %8 = getelementptr inbounds nuw i8, ptr %7, i64 32
  %9 = load ptr, ptr %8, align 8, !tbaa !111
  %10 = inttoptr i64 %0 to ptr
  %11 = getelementptr inbounds nuw i8, ptr %10, i64 32
  %12 = load ptr, ptr %11, align 8, !tbaa !111
  %13 = getelementptr inbounds nuw i8, ptr %12, i64 40
  %14 = load ptr, ptr %13, align 8, !tbaa !138
  %15 = ptrtoint ptr %9 to i64
  %16 = tail call i32 @rb_st_lookup(ptr noundef %14, i64 noundef %15, ptr noundef null) #19
  %.not = icmp eq i32 %16, 0
  br i1 %.not, label %19, label %17

17:                                               ; preds = %6
  %18 = load i64, ptr @rb_eArgError, align 8, !tbaa !80
  tail call void (i64, ptr, ...) @rb_raise(i64 noundef %18, ptr noundef nonnull @.str.82) #27
  unreachable

19:                                               ; preds = %6
  %20 = tail call noalias dereferenceable_or_null(2) ptr @malloc(i64 noundef 2) #34
  store i8 0, ptr %20, align 1, !tbaa !113
  %21 = getelementptr inbounds nuw i8, ptr %20, i64 1
  store i8 0, ptr %21, align 1, !tbaa !141
  %22 = load ptr, ptr @ruby_single_main_ractor, align 8, !tbaa !39
  %.not.i.i = icmp eq ptr %22, null
  br i1 %.not.i.i, label %23, label %rb_current_ractor.exit

23:                                               ; preds = %19
  %24 = tail call align 8 ptr @llvm.threadlocal.address.p0(ptr align 8 @ruby_current_ec)
  %25 = load ptr, ptr %24, align 8, !tbaa !123
  %26 = getelementptr i8, ptr %25, i64 48
  %.val.i.i = load ptr, ptr %26, align 8, !tbaa !90, !nonnull !99, !noundef !99
  %27 = getelementptr inbounds nuw i8, ptr %.val.i.i, i64 24
  %28 = load ptr, ptr %27, align 8, !tbaa !57
  br label %rb_current_ractor.exit

rb_current_ractor.exit:                           ; preds = %19, %23
  %.0.i.i = phi ptr [ %22, %19 ], [ %28, %23 ]
  %29 = getelementptr inbounds nuw i8, ptr %12, i64 8
  %.val = load i64, ptr %.0.i.i, align 8, !tbaa !37
  %30 = tail call fastcc zeroext i1 @ractor_register_take(i64 %.val, ptr noundef %9, ptr noundef nonnull %29, i1 noundef zeroext false, ptr noundef nonnull %20, i1 noundef zeroext true)
  br i1 %30, label %31, label %35

31:                                               ; preds = %rb_current_ractor.exit
  %32 = load ptr, ptr %13, align 8, !tbaa !138
  %33 = ptrtoint ptr %20 to i64
  %34 = tail call i32 @rb_st_insert(ptr noundef %32, i64 noundef %15, i64 noundef %33) #19
  br label %35

35:                                               ; preds = %31, %rb_current_ractor.exit
  ret i64 %1
}